target datalayout = "e-m:e-p270:32:32-p271:32:32-p272:64:64-i64:64-i128:128-f80:128-n8:16:32:64-S128"
target triple = "x86_64-pc-linux-gnu"

@.str = private unnamed_addr constant [18 x i8] c"%s[%d] (%d - %d)\0A\00", align 1
@.str.1 = private unnamed_addr constant [14 x i8] c"%s (%d - %d)\0A\00", align 1

; Function Attrs: mustprogress nounwind uwtable
define void @_Z7cmp_intP8_IO_FILEPKciii(ptr noundef %0, ptr noundef %1, i32 noundef %2, i32 noundef %3, i32 noundef %4) #0 {
  %6 = alloca ptr, align 8
  %7 = alloca ptr, align 8
  %8 = alloca i32, align 4
  %9 = alloca i32, align 4
  %10 = alloca i32, align 4
  store ptr %0, ptr %6, align 8, !tbaa !4
  store ptr %1, ptr %7, align 8, !tbaa !9
  store i32 %2, ptr %8, align 4, !tbaa !11
  store i32 %3, ptr %9, align 4, !tbaa !11
  store i32 %4, ptr %10, align 4, !tbaa !11
  %11 = load i32, ptr %9, align 4, !tbaa !11
  %12 = load i32, ptr %10, align 4, !tbaa !11
  %13 = icmp ne i32 %11, %12
  br i1 %13, label %14, label %31

14:                                               ; preds = %5
  %15 = load i32, ptr %8, align 4, !tbaa !11
  %16 = icmp ne i32 %15, -1
  br i1 %16, label %17, label %24

17:                                               ; preds = %14
  %18 = load ptr, ptr %6, align 8, !tbaa !4
  %19 = load ptr, ptr %7, align 8, !tbaa !9
  %20 = load i32, ptr %8, align 4, !tbaa !11
  %21 = load i32, ptr %9, align 4, !tbaa !11
  %22 = load i32, ptr %10, align 4, !tbaa !11
  %23 = call i32 (ptr, ptr, ...) @fprintf(ptr noundef %18, ptr noundef @.str, ptr noundef %19, i32 noundef %20, i32 noundef %21, i32 noundef %22) #6
  br label %30

24:                                               ; preds = %14
  %25 = load ptr, ptr %6, align 8, !tbaa !4
  %26 = load ptr, ptr %7, align 8, !tbaa !9
  %27 = load i32, ptr %9, align 4, !tbaa !11
  %28 = load i32, ptr %10, align 4, !tbaa !11
  %29 = call i32 (ptr, ptr, ...) @fprintf(ptr noundef %25, ptr noundef @.str.1, ptr noundef %26, i32 noundef %27, i32 noundef %28) #6
  br label %30

30:                                               ; preds = %24, %17
  br label %31

31:                                               ; preds = %30, %5
  ret void
}