; Function Attrs: mustprogress nofree nounwind uwtable
define void @_Z7cmp_intP8_IO_FILEPKciii(ptr noundef captures(none) %0, ptr noundef %1, i32 noundef %2, i32 noundef %3, i32 noundef %4) local_unnamed_addr #0 {
  %.not = icmp eq i32 %3, %4
  br i1 %.not, label %11, label %6

6:                                                ; preds = %5
  %.not13 = icmp eq i32 %2, -1
  br i1 %.not13, label %9, label %7

7:                                                ; preds = %6
  %8 = tail call i32 (ptr, ptr, ...) @fprintf(ptr noundef %0, ptr noundef nonnull @.str, ptr noundef %1, i32 noundef %2, i32 noundef %3, i32 noundef %4) #6
  br label %11

9:                                                ; preds = %6
  %10 = tail call i32 (ptr, ptr, ...) @fprintf(ptr noundef %0, ptr noundef nonnull @.str.1, ptr noundef %1, i32 noundef %3, i32 noundef %4) #6
  br label %11

11:                                               ; preds = %7, %9, %5
  ret void
}